; Function Attrs: mustprogress nounwind uwtable
define noundef ptr @_Z30textFileFormatYy_create_bufferP8_IO_FILEiPv(ptr noundef %0, i32 noundef %1, ptr noundef captures(none) %2) local_unnamed_addr #1 {
  %4 = tail call noalias noundef dereferenceable_or_null(72) ptr @malloc(i64 noundef 72) #30
  %.not = icmp eq ptr %4, null
  br i1 %.not, label %5, label %6

5:                                                ; preds = %3
  tail call fastcc void @_ZL14yy_fatal_errorPKcPv(ptr noundef nonnull @.str.5)
  unreachable

6:                                                ; preds = %3
  %7 = sext i32 %1 to i64
  %8 = getelementptr inbounds nuw i8, ptr %4, i64 24
  store i64 %7, ptr %8, align 8
  %9 = add nsw i64 %7, 2
  %10 = tail call noalias noundef ptr @malloc(i64 noundef %9) #30
  %11 = getelementptr inbounds nuw i8, ptr %4, i64 8
  store ptr %10, ptr %11, align 8
  %.not14 = icmp eq ptr %10, null
  br i1 %.not14, label %12, label %13

12:                                               ; preds = %6
  tail call fastcc void @_ZL14yy_fatal_errorPKcPv(ptr noundef nonnull @.str.5)
  unreachable

13:                                               ; preds = %6
  %14 = getelementptr inbounds nuw i8, ptr %4, i64 40
  store i32 1, ptr %14, align 8
  tail call fastcc void @_ZL28textFileFormatYy_init_bufferP15yy_buffer_stateP8_IO_FILEPv(ptr noundef nonnull %4, ptr noundef %0, ptr noundef %2)
  ret ptr %4
}